target datalayout = "e-m:e-p270:32:32-p271:32:32-p272:64:64-i64:64-i128:128-f80:128-n8:16:32:64-S128"
target triple = "x86_64-pc-linux-gnu"

%struct.methoddata_insolidangle = type { %struct.gmx_ana_pos_t, %struct.gmx_ana_pos_t, float, float, float, float, i32, float, ptr, i32, i32, ptr }
%struct.gmx_ana_pos_t = type <{ ptr, ptr, ptr, %struct.gmx_ana_indexmap_t, i32, [4 x i8] }>
%struct.gmx_ana_indexmap_t = type { i32, ptr, ptr, %struct.t_blocka, ptr, %struct.t_blocka, i8 }
%struct.t_blocka = type { i32, ptr, i32, ptr, i32, i32 }
%struct.partition = type { i32, ptr }
%struct.spheresurfacebin = type { i32, i32, ptr }

@.str.7 = private unnamed_addr constant [135 x i8] c"generated/home/dtcxzyw/WorkSpace/Projects/compilers/llvm-opt-benchmark/bench/gromacs/gromacs/src/gromacs/selection/sm_insolidangle.cpp\00", align 1
@.str.12 = private unnamed_addr constant [13 x i8] c"d->tbin[i].p\00", align 1
@.str.13 = private unnamed_addr constant [8 x i8] c"d->tbin\00", align 1
@.str.14 = private unnamed_addr constant [7 x i8] c"d->bin\00", align 1
@.str.15 = private unnamed_addr constant [15 x i8] c"surf->bin[i].x\00", align 1

; Function Attrs: inlinehint mustprogress uwtable
define internal void @_ZL14gmx_sfree_implIA3_fEvPKcS2_iPT_(ptr noundef %0, ptr noundef %1, i32 noundef %2, ptr noundef %3) #4 {
  %5 = alloca ptr, align 8
  %6 = alloca ptr, align 8
  %7 = alloca i32, align 4
  %8 = alloca ptr, align 8
  store ptr %0, ptr %5, align 8, !tbaa !67
  store ptr %1, ptr %6, align 8, !tbaa !67
  store i32 %2, ptr %7, align 4, !tbaa !4
  store ptr %3, ptr %8, align 8, !tbaa !86
  %9 = load ptr, ptr %5, align 8, !tbaa !67
  %10 = load ptr, ptr %6, align 8, !tbaa !67
  %11 = load i32, ptr %7, align 4, !tbaa !4
  %12 = load ptr, ptr %8, align 8, !tbaa !86
  call void @_Z9save_freePKcS0_iPv(ptr noundef %9, ptr noundef %10, i32 noundef %11, ptr noundef %12)
  ret void
}

; Function Attrs: inlinehint mustprogress nounwind uwtable
define linkonce_odr void @_ZN23methoddata_insolidangleD2Ev(ptr noundef nonnull align 8 dereferenceable(352) %0) unnamed_addr #9 comdat align 2 {
  %2 = alloca ptr, align 8
  store ptr %0, ptr %2, align 8, !tbaa !11
  %3 = load ptr, ptr %2, align 8
  %4 = getelementptr inbounds nuw %struct.methoddata_insolidangle, ptr %3, i32 0, i32 1
  call void @_ZN13gmx_ana_pos_tD1Ev(ptr noundef nonnull align 8 dereferenceable(148) %4) #19
  %5 = getelementptr inbounds nuw %struct.methoddata_insolidangle, ptr %3, i32 0, i32 0
  call void @_ZN13gmx_ana_pos_tD1Ev(ptr noundef nonnull align 8 dereferenceable(148) %5) #19
  ret void
}

; Function Attrs: inlinehint mustprogress uwtable
define internal void @_ZL14gmx_sfree_implI16spheresurfacebinEvPKcS2_iPT_(ptr noundef %0, ptr noundef %1, i32 noundef %2, ptr noundef %3) #4 {
  %5 = alloca ptr, align 8
  %6 = alloca ptr, align 8
  %7 = alloca i32, align 4
  %8 = alloca ptr, align 8
  store ptr %0, ptr %5, align 8, !tbaa !67
  store ptr %1, ptr %6, align 8, !tbaa !67
  store i32 %2, ptr %7, align 4, !tbaa !4
  store ptr %3, ptr %8, align 8, !tbaa !90
  %9 = load ptr, ptr %5, align 8, !tbaa !67
  %10 = load ptr, ptr %6, align 8, !tbaa !67
  %11 = load i32, ptr %7, align 4, !tbaa !4
  %12 = load ptr, ptr %8, align 8, !tbaa !90
  call void @_Z9save_freePKcS0_iPv(ptr noundef %9, ptr noundef %10, i32 noundef %11, ptr noundef %12)
  ret void
}

; Function Attrs: mustprogress uwtable
define internal void @_ZL19free_surface_pointsP23methoddata_insolidangle(ptr noundef %0) #0 {
  %2 = alloca ptr, align 8
  %3 = alloca i32, align 4
  store ptr %0, ptr %2, align 8, !tbaa !11
  call void @llvm.lifetime.start.p0(i64 4, ptr %3) #19
  store i32 0, ptr %3, align 4, !tbaa !4
  br label %4

4:                                                ; preds = %44, %1
  %5 = load i32, ptr %3, align 4, !tbaa !4
  %6 = load ptr, ptr %2, align 8, !tbaa !11
  %7 = getelementptr inbounds nuw %struct.methoddata_insolidangle, ptr %6, i32 0, i32 10
  %8 = load i32, ptr %7, align 4, !tbaa !32
  %9 = icmp slt i32 %5, %8
  br i1 %9, label %10, label %47

10:                                               ; preds = %4
  %11 = load ptr, ptr %2, align 8, !tbaa !11
  %12 = getelementptr inbounds nuw %struct.methoddata_insolidangle, ptr %11, i32 0, i32 11
  %13 = load ptr, ptr %12, align 8, !tbaa !33
  %14 = load i32, ptr %3, align 4, !tbaa !4
  %15 = sext i32 %14 to i64
  %16 = getelementptr inbounds %struct.spheresurfacebin, ptr %13, i64 %15
  %17 = getelementptr inbounds nuw %struct.spheresurfacebin, ptr %16, i32 0, i32 2
  %18 = load ptr, ptr %17, align 8, !tbaa !187
  %19 = icmp ne ptr %18, null
  br i1 %19, label %20, label %29

20:                                               ; preds = %10
  %21 = load ptr, ptr %2, align 8, !tbaa !11
  %22 = getelementptr inbounds nuw %struct.methoddata_insolidangle, ptr %21, i32 0, i32 11
  %23 = load ptr, ptr %22, align 8, !tbaa !33
  %24 = load i32, ptr %3, align 4, !tbaa !4
  %25 = sext i32 %24 to i64
  %26 = getelementptr inbounds %struct.spheresurfacebin, ptr %23, i64 %25
  %27 = getelementptr inbounds nuw %struct.spheresurfacebin, ptr %26, i32 0, i32 2
  %28 = load ptr, ptr %27, align 8, !tbaa !187
  call void @_ZL14gmx_sfree_implIA3_fEvPKcS2_iPT_(ptr noundef @.str.15, ptr noundef @.str.7, i32 noundef 725, ptr noundef %28)
  br label %29

29:                                               ; preds = %20, %10
  %30 = load ptr, ptr %2, align 8, !tbaa !11
  %31 = getelementptr inbounds nuw %struct.methoddata_insolidangle, ptr %30, i32 0, i32 11
  %32 = load ptr, ptr %31, align 8, !tbaa !33
  %33 = load i32, ptr %3, align 4, !tbaa !4
  %34 = sext i32 %33 to i64
  %35 = getelementptr inbounds %struct.spheresurfacebin, ptr %32, i64 %34
  %36 = getelementptr inbounds nuw %struct.spheresurfacebin, ptr %35, i32 0, i32 1
  store i32 0, ptr %36, align 4, !tbaa !189
  %37 = load ptr, ptr %2, align 8, !tbaa !11
  %38 = getelementptr inbounds nuw %struct.methoddata_insolidangle, ptr %37, i32 0, i32 11
  %39 = load ptr, ptr %38, align 8, !tbaa !33
  %40 = load i32, ptr %3, align 4, !tbaa !4
  %41 = sext i32 %40 to i64
  %42 = getelementptr inbounds %struct.spheresurfacebin, ptr %39, i64 %41
  %43 = getelementptr inbounds nuw %struct.spheresurfacebin, ptr %42, i32 0, i32 2
  store ptr null, ptr %43, align 8, !tbaa !187
  br label %44

44:                                               ; preds = %29
  %45 = load i32, ptr %3, align 4, !tbaa !4
  %46 = add nsw i32 %45, 1
  store i32 %46, ptr %3, align 4, !tbaa !4
  br label %4, !llvm.loop !190

47:                                               ; preds = %4
  call void @llvm.lifetime.end.p0(i64 4, ptr %3) #19
  ret void
}

; Function Attrs: inlinehint mustprogress uwtable
define internal void @_ZL14gmx_sfree_implI9partitionEvPKcS2_iPT_(ptr noundef %0, ptr noundef %1, i32 noundef %2, ptr noundef %3) #4 {
  %5 = alloca ptr, align 8
  %6 = alloca ptr, align 8
  %7 = alloca i32, align 4
  %8 = alloca ptr, align 8
  store ptr %0, ptr %5, align 8, !tbaa !67
  store ptr %1, ptr %6, align 8, !tbaa !67
  store i32 %2, ptr %7, align 4, !tbaa !4
  store ptr %3, ptr %8, align 8, !tbaa !85
  %9 = load ptr, ptr %5, align 8, !tbaa !67
  %10 = load ptr, ptr %6, align 8, !tbaa !67
  %11 = load i32, ptr %7, align 4, !tbaa !4
  %12 = load ptr, ptr %8, align 8, !tbaa !85
  call void @_Z9save_freePKcS0_iPv(ptr noundef %9, ptr noundef %10, i32 noundef %11, ptr noundef %12)
  ret void
}

; Function Attrs: inlinehint mustprogress uwtable
define internal void @_ZL14gmx_sfree_implI16t_partition_itemEvPKcS2_iPT_(ptr noundef %0, ptr noundef %1, i32 noundef %2, ptr noundef %3) #4 {
  %5 = alloca ptr, align 8
  %6 = alloca ptr, align 8
  %7 = alloca i32, align 4
  %8 = alloca ptr, align 8
  store ptr %0, ptr %5, align 8, !tbaa !67
  store ptr %1, ptr %6, align 8, !tbaa !67
  store i32 %2, ptr %7, align 4, !tbaa !4
  store ptr %3, ptr %8, align 8, !tbaa !37
  %9 = load ptr, ptr %5, align 8, !tbaa !67
  %10 = load ptr, ptr %6, align 8, !tbaa !67
  %11 = load i32, ptr %7, align 4, !tbaa !4
  %12 = load ptr, ptr %8, align 8, !tbaa !37
  call void @_Z9save_freePKcS0_iPv(ptr noundef %9, ptr noundef %10, i32 noundef %11, ptr noundef %12)
  ret void
}

; Function Attrs: mustprogress uwtable
define internal void @_ZL22free_data_insolidanglePv(ptr noundef %0) #0 {
  %2 = alloca ptr, align 8
  %3 = alloca ptr, align 8
  %4 = alloca i32, align 4
  store ptr %0, ptr %2, align 8, !tbaa !37
  call void @llvm.lifetime.start.p0(i64 8, ptr %3) #19
  %5 = load ptr, ptr %2, align 8, !tbaa !37
  store ptr %5, ptr %3, align 8, !tbaa !11
  call void @llvm.lifetime.start.p0(i64 4, ptr %4) #19
  %6 = load ptr, ptr %3, align 8, !tbaa !11
  %7 = getelementptr inbounds nuw %struct.methoddata_insolidangle, ptr %6, i32 0, i32 8
  %8 = load ptr, ptr %7, align 8, !tbaa !30
  %9 = icmp ne ptr %8, null
  br i1 %9, label %10, label %33

10:                                               ; preds = %1
  store i32 0, ptr %4, align 4, !tbaa !4
  br label %11

11:                                               ; preds = %26, %10
  %12 = load i32, ptr %4, align 4, !tbaa !4
  %13 = load ptr, ptr %3, align 8, !tbaa !11
  %14 = getelementptr inbounds nuw %struct.methoddata_insolidangle, ptr %13, i32 0, i32 6
  %15 = load i32, ptr %14, align 8, !tbaa !28
  %16 = icmp slt i32 %12, %15
  br i1 %16, label %17, label %29

17:                                               ; preds = %11
  %18 = load ptr, ptr %3, align 8, !tbaa !11
  %19 = getelementptr inbounds nuw %struct.methoddata_insolidangle, ptr %18, i32 0, i32 8
  %20 = load ptr, ptr %19, align 8, !tbaa !30
  %21 = load i32, ptr %4, align 4, !tbaa !4
  %22 = sext i32 %21 to i64
  %23 = getelementptr inbounds %struct.partition, ptr %20, i64 %22
  %24 = getelementptr inbounds nuw %struct.partition, ptr %23, i32 0, i32 1
  %25 = load ptr, ptr %24, align 8, !tbaa !41
  call void @_ZL14gmx_sfree_implI16t_partition_itemEvPKcS2_iPT_(ptr noundef @.str.12, ptr noundef @.str.7, i32 noundef 440, ptr noundef %25)
  br label %26

26:                                               ; preds = %17
  %27 = load i32, ptr %4, align 4, !tbaa !4
  %28 = add nsw i32 %27, 1
  store i32 %28, ptr %4, align 4, !tbaa !4
  br label %11, !llvm.loop !43

29:                                               ; preds = %11
  %30 = load ptr, ptr %3, align 8, !tbaa !11
  %31 = getelementptr inbounds nuw %struct.methoddata_insolidangle, ptr %30, i32 0, i32 8
  %32 = load ptr, ptr %31, align 8, !tbaa !30
  call void @_ZL14gmx_sfree_implI9partitionEvPKcS2_iPT_(ptr noundef @.str.13, ptr noundef @.str.7, i32 noundef 442, ptr noundef %32)
  br label %33

33:                                               ; preds = %29, %1
  %34 = load ptr, ptr %3, align 8, !tbaa !11
  call void @_ZL19free_surface_pointsP23methoddata_insolidangle(ptr noundef %34)
  %35 = load ptr, ptr %3, align 8, !tbaa !11
  %36 = getelementptr inbounds nuw %struct.methoddata_insolidangle, ptr %35, i32 0, i32 11
  %37 = load ptr, ptr %36, align 8, !tbaa !33
  call void @_ZL14gmx_sfree_implI16spheresurfacebinEvPKcS2_iPT_(ptr noundef @.str.14, ptr noundef @.str.7, i32 noundef 445, ptr noundef %37)
  %38 = load ptr, ptr %3, align 8, !tbaa !11
  %39 = icmp eq ptr %38, null
  br i1 %39, label %41, label %40

40:                                               ; preds = %33
  call void @_ZN23methoddata_insolidangleD2Ev(ptr noundef nonnull align 8 dereferenceable(352) %38) #19
  call void @_ZdlPvm(ptr noundef %38, i64 noundef 352) #21
  br label %41

41:                                               ; preds = %40, %33
  call void @llvm.lifetime.end.p0(i64 4, ptr %4) #19
  call void @llvm.lifetime.end.p0(i64 8, ptr %3) #19
  ret void
}