; Function Attrs: mustprogress uwtable
define internal void @_ZL22free_data_insolidanglePv(ptr noundef %0) #0 {
  %2 = getelementptr inbounds nuw i8, ptr %0, i64 328
  %3 = load ptr, ptr %2, align 8, !tbaa !32
  %.not = icmp eq ptr %3, null
  br i1 %.not, label %14, label %.preheader

.preheader:                                       ; preds = %1
  %4 = getelementptr inbounds nuw i8, ptr %0, i64 320
  %5 = load i32, ptr %4, align 8, !tbaa !28
  %6 = icmp sgt i32 %5, 0
  br i1 %6, label %.lr.ph, label %._crit_edge

.lr.ph:                                           ; preds = %.preheader, %.lr.ph
  %indvars.iv = phi i64 [ %indvars.iv.next, %.lr.ph ], [ 0, %.preheader ]
  %7 = load ptr, ptr %2, align 8, !tbaa !32
  %8 = getelementptr inbounds nuw %struct.partition, ptr %7, i64 %indvars.iv, i32 1
  %9 = load ptr, ptr %8, align 8, !tbaa !38
  tail call void @_Z9save_freePKcS0_iPv(ptr noundef nonnull @.str.12, ptr noundef nonnull @.str.7, i32 noundef 440, ptr noundef %9)
  %indvars.iv.next = add nuw nsw i64 %indvars.iv, 1
  %10 = load i32, ptr %4, align 8, !tbaa !28
  %11 = sext i32 %10 to i64
  %12 = icmp slt i64 %indvars.iv.next, %11
  br i1 %12, label %.lr.ph, label %._crit_edge.loopexit, !llvm.loop !40

._crit_edge.loopexit:                             ; preds = %.lr.ph
  %.pre = load ptr, ptr %2, align 8, !tbaa !32
  br label %._crit_edge

._crit_edge:                                      ; preds = %._crit_edge.loopexit, %.preheader
  %13 = phi ptr [ %.pre, %._crit_edge.loopexit ], [ %3, %.preheader ]
  tail call void @_Z9save_freePKcS0_iPv(ptr noundef nonnull @.str.13, ptr noundef nonnull @.str.7, i32 noundef 442, ptr noundef %13)
  br label %14

14:                                               ; preds = %._crit_edge, %1
  %15 = getelementptr inbounds nuw i8, ptr %0, i64 340
  %16 = load i32, ptr %15, align 4, !tbaa !36
  %17 = icmp sgt i32 %16, 0
  %18 = getelementptr inbounds nuw i8, ptr %0, i64 344
  %.pre.i = load ptr, ptr %18, align 8, !tbaa !41
  br i1 %17, label %.lr.ph.i, label %.loopexit

.lr.ph.i:                                         ; preds = %14, %24
  %19 = phi i32 [ %25, %24 ], [ %16, %14 ]
  %20 = phi ptr [ %26, %24 ], [ %.pre.i, %14 ]
  %indvars.iv.i = phi i64 [ %indvars.iv.next.i, %24 ], [ 0, %14 ]
  %21 = getelementptr inbounds nuw %struct.spheresurfacebin, ptr %20, i64 %indvars.iv.i, i32 2
  %22 = load ptr, ptr %21, align 8, !tbaa !42
  %.not.i = icmp eq ptr %22, null
  br i1 %.not.i, label %24, label %23

23:                                               ; preds = %.lr.ph.i
  tail call void @_Z9save_freePKcS0_iPv(ptr noundef nonnull @.str.15, ptr noundef nonnull @.str.7, i32 noundef 725, ptr noundef nonnull %22)
  %.pre13.i = load ptr, ptr %18, align 8, !tbaa !41
  %.pre14.i = load i32, ptr %15, align 4, !tbaa !36
  br label %24

24:                                               ; preds = %23, %.lr.ph.i
  %25 = phi i32 [ %.pre14.i, %23 ], [ %19, %.lr.ph.i ]
  %26 = phi ptr [ %.pre13.i, %23 ], [ %20, %.lr.ph.i ]
  %27 = getelementptr inbounds nuw %struct.spheresurfacebin, ptr %26, i64 %indvars.iv.i, i32 1
  store i32 0, ptr %27, align 4, !tbaa !44
  %28 = getelementptr inbounds nuw %struct.spheresurfacebin, ptr %26, i64 %indvars.iv.i, i32 2
  store ptr null, ptr %28, align 8, !tbaa !42
  %indvars.iv.next.i = add nuw nsw i64 %indvars.iv.i, 1
  %29 = sext i32 %25 to i64
  %30 = icmp slt i64 %indvars.iv.next.i, %29
  br i1 %30, label %.lr.ph.i, label %.loopexit, !llvm.loop !45

.loopexit:                                        ; preds = %24, %14
  %31 = phi ptr [ %.pre.i, %14 ], [ %26, %24 ]
  tail call void @_Z9save_freePKcS0_iPv(ptr noundef nonnull @.str.14, ptr noundef nonnull @.str.7, i32 noundef 445, ptr noundef %31)
  %32 = getelementptr inbounds nuw i8, ptr %0, i64 152
  tail call void @_ZN13gmx_ana_pos_tD1Ev(ptr noundef nonnull align 8 dereferenceable(148) %32) #20
  tail call void @_ZN13gmx_ana_pos_tD1Ev(ptr noundef nonnull align 8 dereferenceable(352) %0) #20
  tail call void @_ZdlPvm(ptr noundef %0, i64 noundef 352) #21
  ret void
}